; ModuleID = '41/367.cpp'
source_filename = "41/367.cpp"
target datalayout = "e-m:e-p270:32:32-p271:32:32-p272:64:64-i64:64-f80:128-n8:16:32:64-S128"
target triple = "x86_64-pc-linux-gnu"

%"class.std::ios_base::Init" = type { i8 }
%"class.std::basic_ostream" = type { i32 (...)**, %"class.std::basic_ios" }
%"class.std::basic_ios" = type { %"class.std::ios_base", %"class.std::basic_ostream"*, i8, i8, %"class.std::basic_streambuf"*, %"class.std::ctype"*, %"class.std::num_put"*, %"class.std::num_get"* }
%"class.std::ios_base" = type { i32 (...)**, i64, i64, i32, i32, i32, %"struct.std::ios_base::_Callback_list"*, %"struct.std::ios_base::_Words", [8 x %"struct.std::ios_base::_Words"], i32, %"struct.std::ios_base::_Words"*, %"class.std::locale" }
%"struct.std::ios_base::_Callback_list" = type { %"struct.std::ios_base::_Callback_list"*, void (i32, %"class.std::ios_base"*, i32)*, i32, i32 }
%"struct.std::ios_base::_Words" = type { i8*, i64 }
%"class.std::locale" = type { %"class.std::locale::_Impl"* }
%"class.std::locale::_Impl" = type { i32, %"class.std::locale::facet"**, i64, %"class.std::locale::facet"**, i8** }
%"class.std::locale::facet" = type <{ i32 (...)**, i32, [4 x i8] }>
%"class.std::basic_streambuf" = type { i32 (...)**, i8*, i8*, i8*, i8*, i8*, i8*, %"class.std::locale" }
%"class.std::ctype" = type <{ %"class.std::locale::facet.base", [4 x i8], %struct.__locale_struct*, i8, [7 x i8], i32*, i32*, i16*, i8, [256 x i8], [256 x i8], i8, [6 x i8] }>
%"class.std::locale::facet.base" = type <{ i32 (...)**, i32 }>
%struct.__locale_struct = type { [13 x %struct.__locale_data*], i16*, i32*, i32*, [13 x i8*] }
%struct.__locale_data = type opaque
%"class.std::num_put" = type { %"class.std::locale::facet.base", [4 x i8] }
%"class.std::num_get" = type { %"class.std::locale::facet.base", [4 x i8] }

@_ZStL8__ioinit = internal global %"class.std::ios_base::Init" zeroinitializer, align 1
@__dso_handle = external hidden global i8
@_ZSt4cout = external dso_local global %"class.std::basic_ostream", align 8
@.str = private unnamed_addr constant [2 x i8] c" \00", align 1
@llvm.global_ctors = appending global [1 x { i32, void ()*, i8* }] [{ i32, void ()*, i8* } { i32 65535, void ()* @_GLOBAL__sub_I_367.cpp, i8* null }]

; Function Attrs: noinline uwtable
define internal void @__cxx_global_var_init() #0 section ".text.startup" {
  call void @_ZNSt8ios_base4InitC1Ev(%"class.std::ios_base::Init"* @_ZStL8__ioinit)
  %1 = call i32 @__cxa_atexit(void (i8*)* bitcast (void (%"class.std::ios_base::Init"*)* @_ZNSt8ios_base4InitD1Ev to void (i8*)*), i8* getelementptr inbounds (%"class.std::ios_base::Init", %"class.std::ios_base::Init"* @_ZStL8__ioinit, i32 0, i32 0), i8* @__dso_handle) #3
  ret void
}

declare dso_local void @_ZNSt8ios_base4InitC1Ev(%"class.std::ios_base::Init"*) unnamed_addr #1

; Function Attrs: nounwind
declare dso_local void @_ZNSt8ios_base4InitD1Ev(%"class.std::ios_base::Init"*) unnamed_addr #2

; Function Attrs: nounwind
declare dso_local i32 @__cxa_atexit(void (i8*)*, i8*, i8*) #3

; Function Attrs: noinline norecurse uwtable
define dso_local i32 @main() #4 {
  %1 = alloca i32, align 4
  %2 = alloca i32, align 4
  %3 = alloca i32, align 4
  %4 = alloca i32, align 4
  %5 = alloca i32, align 4
  %6 = alloca i32, align 4
  %7 = alloca i32, align 4
  %8 = alloca i32, align 4
  %9 = alloca i32, align 4
  %10 = alloca i32, align 4
  %11 = alloca i32, align 4
  %12 = alloca [6 x i32], align 16
  store i32 0, i32* %1, align 4
  store i32 1, i32* %2, align 4
  br label %13

13:                                               ; preds = %167, %0
  %14 = load i32, i32* %2, align 4
  %15 = icmp sle i32 %14, 5
  br i1 %15, label %16, label %170

16:                                               ; preds = %13
  store i32 1, i32* %3, align 4
  br label %17

17:                                               ; preds = %163, %16
  %18 = load i32, i32* %3, align 4
  %19 = icmp sle i32 %18, 5
  br i1 %19, label %20, label %166

20:                                               ; preds = %17
  %21 = load i32, i32* %2, align 4
  %22 = load i32, i32* %3, align 4
  %23 = icmp eq i32 %21, %22
  br i1 %23, label %24, label %25

24:                                               ; preds = %20
  br label %163

25:                                               ; preds = %20
  store i32 1, i32* %4, align 4
  br label %26

26:                                               ; preds = %159, %25
  %27 = load i32, i32* %4, align 4
  %28 = icmp sle i32 %27, 5
  br i1 %28, label %29, label %162

29:                                               ; preds = %26
  %30 = load i32, i32* %3, align 4
  %31 = load i32, i32* %4, align 4
  %32 = icmp eq i32 %30, %31
  br i1 %32, label %37, label %33

33:                                               ; preds = %29
  %34 = load i32, i32* %2, align 4
  %35 = load i32, i32* %4, align 4
  %36 = icmp eq i32 %34, %35
  br i1 %36, label %37, label %38

37:                                               ; preds = %33, %29
  br label %159

38:                                               ; preds = %33
  store i32 1, i32* %5, align 4
  br label %39

39:                                               ; preds = %155, %38
  %40 = load i32, i32* %5, align 4
  %41 = icmp sle i32 %40, 5
  br i1 %41, label %42, label %158

42:                                               ; preds = %39
  %43 = load i32, i32* %2, align 4
  %44 = load i32, i32* %5, align 4
  %45 = icmp eq i32 %43, %44
  br i1 %45, label %54, label %46

46:                                               ; preds = %42
  %47 = load i32, i32* %3, align 4
  %48 = load i32, i32* %5, align 4
  %49 = icmp eq i32 %47, %48
  br i1 %49, label %54, label %50

50:                                               ; preds = %46
  %51 = load i32, i32* %4, align 4
  %52 = load i32, i32* %5, align 4
  %53 = icmp eq i32 %51, %52
  br i1 %53, label %54, label %55

54:                                               ; preds = %50, %46, %42
  br label %155

55:                                               ; preds = %50
  store i32 1, i32* %6, align 4
  br label %56

56:                                               ; preds = %151, %55
  %57 = load i32, i32* %6, align 4
  %58 = icmp sle i32 %57, 5
  br i1 %58, label %59, label %154

59:                                               ; preds = %56
  %60 = load i32, i32* %2, align 4
  %61 = load i32, i32* %6, align 4
  %62 = icmp eq i32 %60, %61
  br i1 %62, label %75, label %63

63:                                               ; preds = %59
  %64 = load i32, i32* %3, align 4
  %65 = load i32, i32* %6, align 4
  %66 = icmp eq i32 %64, %65
  br i1 %66, label %75, label %67

67:                                               ; preds = %63
  %68 = load i32, i32* %4, align 4
  %69 = load i32, i32* %6, align 4
  %70 = icmp eq i32 %68, %69
  br i1 %70, label %75, label %71

71:                                               ; preds = %67
  %72 = load i32, i32* %5, align 4
  %73 = load i32, i32* %6, align 4
  %74 = icmp eq i32 %72, %73
  br i1 %74, label %75, label %76

75:                                               ; preds = %71, %67, %63, %59
  br label %151

76:                                               ; preds = %71
  %77 = load i32, i32* %6, align 4
  %78 = icmp eq i32 %77, 1
  %79 = zext i1 %78 to i32
  store i32 %79, i32* %7, align 4
  %80 = load i32, i32* %3, align 4
  %81 = icmp eq i32 %80, 2
  %82 = zext i1 %81 to i32
  store i32 %82, i32* %8, align 4
  %83 = load i32, i32* %2, align 4
  %84 = icmp eq i32 %83, 5
  %85 = zext i1 %84 to i32
  store i32 %85, i32* %9, align 4
  %86 = load i32, i32* %4, align 4
  %87 = icmp ne i32 %86, 1
  %88 = zext i1 %87 to i32
  store i32 %88, i32* %10, align 4
  %89 = load i32, i32* %5, align 4
  %90 = icmp eq i32 %89, 1
  %91 = zext i1 %90 to i32
  store i32 %91, i32* %11, align 4
  %92 = load i32, i32* %6, align 4
  %93 = icmp eq i32 %92, 2
  br i1 %93, label %97, label %94

94:                                               ; preds = %76
  %95 = load i32, i32* %6, align 4
  %96 = icmp eq i32 %95, 3
  br i1 %96, label %97, label %98

97:                                               ; preds = %94, %76
  br label %154

98:                                               ; preds = %94
  %99 = load i32, i32* %7, align 4
  %100 = load i32, i32* %2, align 4
  %101 = sext i32 %100 to i64
  %102 = getelementptr inbounds [6 x i32], [6 x i32]* %12, i64 0, i64 %101
  store i32 %99, i32* %102, align 4
  %103 = load i32, i32* %8, align 4
  %104 = load i32, i32* %3, align 4
  %105 = sext i32 %104 to i64
  %106 = getelementptr inbounds [6 x i32], [6 x i32]* %12, i64 0, i64 %105
  store i32 %103, i32* %106, align 4
  %107 = load i32, i32* %9, align 4
  %108 = load i32, i32* %4, align 4
  %109 = sext i32 %108 to i64
  %110 = getelementptr inbounds [6 x i32], [6 x i32]* %12, i64 0, i64 %109
  store i32 %107, i32* %110, align 4
  %111 = load i32, i32* %10, align 4
  %112 = load i32, i32* %5, align 4
  %113 = sext i32 %112 to i64
  %114 = getelementptr inbounds [6 x i32], [6 x i32]* %12, i64 0, i64 %113
  store i32 %111, i32* %114, align 4
  %115 = load i32, i32* %11, align 4
  %116 = load i32, i32* %6, align 4
  %117 = sext i32 %116 to i64
  %118 = getelementptr inbounds [6 x i32], [6 x i32]* %12, i64 0, i64 %117
  store i32 %115, i32* %118, align 4
  %119 = getelementptr inbounds [6 x i32], [6 x i32]* %12, i64 0, i64 1
  %120 = load i32, i32* %119, align 4
  %121 = getelementptr inbounds [6 x i32], [6 x i32]* %12, i64 0, i64 2
  %122 = load i32, i32* %121, align 8
  %123 = add nsw i32 %120, %122
  %124 = icmp eq i32 %123, 2
  br i1 %124, label %125, label %150

125:                                              ; preds = %98
  %126 = getelementptr inbounds [6 x i32], [6 x i32]* %12, i64 0, i64 3
  %127 = load i32, i32* %126, align 4
  %128 = getelementptr inbounds [6 x i32], [6 x i32]* %12, i64 0, i64 4
  %129 = load i32, i32* %128, align 16
  %130 = add nsw i32 %127, %129
  %131 = getelementptr inbounds [6 x i32], [6 x i32]* %12, i64 0, i64 5
  %132 = load i32, i32* %131, align 4
  %133 = add nsw i32 %130, %132
  %134 = icmp eq i32 %133, 0
  br i1 %134, label %135, label %150

135:                                              ; preds = %125
  %136 = load i32, i32* %2, align 4
  %137 = call dereferenceable(272) %"class.std::basic_ostream"* @_ZNSolsEi(%"class.std::basic_ostream"* @_ZSt4cout, i32 %136)
  %138 = call dereferenceable(272) %"class.std::basic_ostream"* @_ZStlsISt11char_traitsIcEERSt13basic_ostreamIcT_ES5_PKc(%"class.std::basic_ostream"* dereferenceable(272) %137, i8* getelementptr inbounds ([2 x i8], [2 x i8]* @.str, i64 0, i64 0))
  %139 = load i32, i32* %3, align 4
  %140 = call dereferenceable(272) %"class.std::basic_ostream"* @_ZNSolsEi(%"class.std::basic_ostream"* %138, i32 %139)
  %141 = call dereferenceable(272) %"class.std::basic_ostream"* @_ZStlsISt11char_traitsIcEERSt13basic_ostreamIcT_ES5_PKc(%"class.std::basic_ostream"* dereferenceable(272) %140, i8* getelementptr inbounds ([2 x i8], [2 x i8]* @.str, i64 0, i64 0))
  %142 = load i32, i32* %4, align 4
  %143 = call dereferenceable(272) %"class.std::basic_ostream"* @_ZNSolsEi(%"class.std::basic_ostream"* %141, i32 %142)
  %144 = call dereferenceable(272) %"class.std::basic_ostream"* @_ZStlsISt11char_traitsIcEERSt13basic_ostreamIcT_ES5_PKc(%"class.std::basic_ostream"* dereferenceable(272) %143, i8* getelementptr inbounds ([2 x i8], [2 x i8]* @.str, i64 0, i64 0))
  %145 = load i32, i32* %5, align 4
  %146 = call dereferenceable(272) %"class.std::basic_ostream"* @_ZNSolsEi(%"class.std::basic_ostream"* %144, i32 %145)
  %147 = call dereferenceable(272) %"class.std::basic_ostream"* @_ZStlsISt11char_traitsIcEERSt13basic_ostreamIcT_ES5_PKc(%"class.std::basic_ostream"* dereferenceable(272) %146, i8* getelementptr inbounds ([2 x i8], [2 x i8]* @.str, i64 0, i64 0))
  %148 = load i32, i32* %6, align 4
  %149 = call dereferenceable(272) %"class.std::basic_ostream"* @_ZNSolsEi(%"class.std::basic_ostream"* %147, i32 %148)
  br label %150

150:                                              ; preds = %135, %125, %98
  br label %151

151:                                              ; preds = %150, %75
  %152 = load i32, i32* %6, align 4
  %153 = add nsw i32 %152, 1
  store i32 %153, i32* %6, align 4
  br label %56

154:                                              ; preds = %97, %56
  br label %155

155:                                              ; preds = %154, %54
  %156 = load i32, i32* %5, align 4
  %157 = add nsw i32 %156, 1
  store i32 %157, i32* %5, align 4
  br label %39

158:                                              ; preds = %39
  br label %159

159:                                              ; preds = %158, %37
  %160 = load i32, i32* %4, align 4
  %161 = add nsw i32 %160, 1
  store i32 %161, i32* %4, align 4
  br label %26

162:                                              ; preds = %26
  br label %163

163:                                              ; preds = %162, %24
  %164 = load i32, i32* %3, align 4
  %165 = add nsw i32 %164, 1
  store i32 %165, i32* %3, align 4
  br label %17

166:                                              ; preds = %17
  br label %167

167:                                              ; preds = %166
  %168 = load i32, i32* %2, align 4
  %169 = add nsw i32 %168, 1
  store i32 %169, i32* %2, align 4
  br label %13

170:                                              ; preds = %13
  ret i32 0
}

declare dso_local dereferenceable(272) %"class.std::basic_ostream"* @_ZStlsISt11char_traitsIcEERSt13basic_ostreamIcT_ES5_PKc(%"class.std::basic_ostream"* dereferenceable(272), i8*) #1

declare dso_local dereferenceable(272) %"class.std::basic_ostream"* @_ZNSolsEi(%"class.std::basic_ostream"*, i32) #1

; Function Attrs: noinline uwtable
define internal void @_GLOBAL__sub_I_367.cpp() #0 section ".text.startup" {
  call void @__cxx_global_var_init()
  ret void
}


!llvm.module.flags = !{!0}
!llvm.ident = !{!1}

!0 = !{i32 1, !"wchar_size", i32 4}
!1 = !{!"clang version 10.0.0-4ubuntu1 "}
